target datalayout = "e-m:e-p270:32:32-p271:32:32-p272:64:64-i64:64-i128:128-f80:128-n8:16:32:64-S128"
target triple = "x86_64-pc-linux-gnu"

%struct.H266RawExtensionData = type { ptr, ptr, i64 }

@.str.335 = private unnamed_addr constant [15 x i8] c"extension_data\00", align 1

; Function Attrs: nounwind uwtable
define internal i32 @cbs_h266_write_extension_data(ptr noundef %0, ptr noundef %1, ptr noundef %2) #0 {
  %4 = alloca i32, align 4
  %5 = alloca ptr, align 8
  %6 = alloca ptr, align 8
  %7 = alloca ptr, align 8
  %8 = alloca i32, align 4
  %9 = alloca i64, align 8
  %10 = alloca i32, align 4
  %11 = alloca i32, align 4
  store ptr %0, ptr %5, align 8, !tbaa !4
  store ptr %1, ptr %6, align 8, !tbaa !70
  store ptr %2, ptr %7, align 8, !tbaa !1352
  call void @llvm.lifetime.start.p0(i64 4, ptr %8) #11
  call void @llvm.lifetime.start.p0(i64 8, ptr %9) #11
  store i64 0, ptr %9, align 8, !tbaa !40
  br label %12

12:                                               ; preds = %51, %3
  %13 = load i64, ptr %9, align 8, !tbaa !40
  %14 = load ptr, ptr %7, align 8, !tbaa !1352
  %15 = getelementptr inbounds nuw %struct.H266RawExtensionData, ptr %14, i32 0, i32 2
  %16 = load i64, ptr %15, align 8, !tbaa !1355
  %17 = icmp ult i64 %13, %16
  br i1 %17, label %18, label %54

18:                                               ; preds = %12
  br label %19

19:                                               ; preds = %18
  call void @llvm.lifetime.start.p0(i64 4, ptr %10) #11
  %20 = load ptr, ptr %7, align 8, !tbaa !1352
  %21 = getelementptr inbounds nuw %struct.H266RawExtensionData, ptr %20, i32 0, i32 0
  %22 = load ptr, ptr %21, align 8, !tbaa !1357
  %23 = load i64, ptr %9, align 8, !tbaa !40
  %24 = udiv i64 %23, 8
  %25 = getelementptr inbounds nuw i8, ptr %22, i64 %24
  %26 = load i8, ptr %25, align 1, !tbaa !32
  %27 = zext i8 %26 to i32
  %28 = load i64, ptr %9, align 8, !tbaa !40
  %29 = urem i64 %28, 8
  %30 = sub i64 7, %29
  %31 = trunc i64 %30 to i32
  %32 = ashr i32 %27, %31
  %33 = and i32 %32, 1
  store i32 %33, ptr %10, align 4, !tbaa !11
  br label %34

34:                                               ; preds = %19
  %35 = load ptr, ptr %5, align 8, !tbaa !4
  %36 = load ptr, ptr %6, align 8, !tbaa !70
  %37 = load i32, ptr %10, align 4, !tbaa !11
  %38 = call i32 @ff_cbs_write_unsigned(ptr noundef %35, ptr noundef %36, i32 noundef 1, ptr noundef @.str.335, ptr noundef null, i32 noundef %37, i32 noundef 0, i32 noundef 1)
  store i32 %38, ptr %8, align 4, !tbaa !11
  %39 = load i32, ptr %8, align 4, !tbaa !11
  %40 = icmp slt i32 %39, 0
  br i1 %40, label %41, label %43

41:                                               ; preds = %34
  %42 = load i32, ptr %8, align 4, !tbaa !11
  store i32 %42, ptr %4, align 4
  store i32 1, ptr %11, align 4
  br label %46

43:                                               ; preds = %34
  br label %44

44:                                               ; preds = %43
  br label %45

45:                                               ; preds = %44
  store i32 0, ptr %11, align 4
  br label %46

46:                                               ; preds = %45, %41
  call void @llvm.lifetime.end.p0(i64 4, ptr %10) #11
  %47 = load i32, ptr %11, align 4
  switch i32 %47, label %55 [
    i32 0, label %48
  ]

48:                                               ; preds = %46
  br label %49

49:                                               ; preds = %48
  br label %50

50:                                               ; preds = %49
  br label %51

51:                                               ; preds = %50
  %52 = load i64, ptr %9, align 8, !tbaa !40
  %53 = add i64 %52, 1
  store i64 %53, ptr %9, align 8, !tbaa !40
  br label %12, !llvm.loop !1674

54:                                               ; preds = %12
  store i32 0, ptr %4, align 4
  store i32 1, ptr %11, align 4
  br label %55

55:                                               ; preds = %54, %46
  call void @llvm.lifetime.end.p0(i64 8, ptr %9) #11
  call void @llvm.lifetime.end.p0(i64 4, ptr %8) #11
  %56 = load i32, ptr %4, align 4
  ret i32 %56
}