; Function Attrs: nounwind uwtable
define internal fastcc range(i32 -2147483648, 1) i32 @cbs_h266_write_extension_data(ptr noundef %0, ptr noundef %1, ptr noundef readonly captures(none) %2) unnamed_addr #0 {
  %4 = getelementptr inbounds nuw i8, ptr %2, i64 16
  %5 = load i64, ptr %4, align 8, !tbaa !647
  %.not = icmp eq i64 %5, 0
  br i1 %.not, label %._crit_edge, label %.lr.ph

6:                                                ; preds = %.lr.ph
  %7 = add nuw i64 %.01315, 1
  %8 = load i64, ptr %4, align 8, !tbaa !647
  %9 = icmp ult i64 %7, %8
  br i1 %9, label %.lr.ph, label %._crit_edge, !llvm.loop !648

.lr.ph:                                           ; preds = %3, %6
  %.01315 = phi i64 [ %7, %6 ], [ 0, %3 ]
  %10 = load ptr, ptr %2, align 8, !tbaa !649
  %11 = lshr i64 %.01315, 3
  %12 = getelementptr inbounds nuw i8, ptr %10, i64 %11
  %13 = load i8, ptr %12, align 1, !tbaa !25
  %14 = zext i8 %13 to i32
  %15 = trunc i64 %.01315 to i32
  %16 = and i32 %15, 7
  %17 = xor i32 %16, 7
  %18 = lshr i32 %14, %17
  %19 = and i32 %18, 1
  %20 = tail call i32 @ff_cbs_write_unsigned(ptr noundef %0, ptr noundef %1, i32 noundef 1, ptr noundef nonnull @.str.335, ptr noundef null, i32 noundef %19, i32 noundef 0, i32 noundef 1) #11
  %21 = icmp sgt i32 %20, -1
  br i1 %21, label %6, label %._crit_edge

._crit_edge:                                      ; preds = %.lr.ph, %6, %3
  %.2 = phi i32 [ 0, %3 ], [ 0, %6 ], [ %20, %.lr.ph ]
  ret i32 %.2
}